target datalayout = "e-m:e-p270:32:32-p271:32:32-p272:64:64-i64:64-i128:128-f80:128-n8:16:32:64-S128"
target triple = "x86_64-pc-linux-gnu"

%struct.AVRational = type { i32, i32 }
%struct.AVCodecContext = type { ptr, i32, i32, ptr, i32, i32, ptr, ptr, ptr, i64, i32, i32, ptr, i32, %struct.AVRational, %struct.AVRational, %struct.AVRational, i32, i32, i32, i32, i32, %struct.AVRational, i32, i32, i32, i32, i32, i32, i32, i32, i32, i32, i32, ptr, ptr, i32, float, float, float, float, float, float, float, float, float, i32, i32, i32, i32, i32, i32, i32, i32, i32, i32, i32, i32, ptr, ptr, ptr, i32, i32, i32, i32, i32, i32, i32, i32, i32, i32, %struct.AVChannelLayout, i32, i32, i32, i32, i32, i32, i32, i32, ptr, i32, i32, i32, float, float, i32, i32, i32, i32, i32, ptr, i64, i64, float, float, i32, i32, ptr, ptr, i32, i32, i32, i32, i32, ptr, ptr, ptr, ptr, i32, i32, [8 x i64], i32, i32, i32, i32, i32, i32, i32, ptr, ptr, i32, i32, i32, i32, i32, i32, i32, i32, i32, i32, ptr, ptr, i32, i32, ptr, ptr, ptr, ptr, i32, i32, i64, i32, i32, i64, ptr, i64, ptr, i32, ptr, i32 }
%struct.AVChannelLayout = type { i32, i32, %union.anon, ptr }
%union.anon = type { i64 }
%struct.AVBufferRef = type { ptr, ptr, i64 }
%struct.AVHWDeviceContext = type { ptr, i32, ptr, ptr, ptr }
%struct.AVHWAccel = type { ptr, i32, i32, i32, i32 }
%struct.AVHWFramesContext = type { ptr, ptr, ptr, ptr, ptr, ptr, ptr, i32, i32, i32, i32, i32 }

@.str.6 = private unnamed_addr constant [84 x i8] c"A hardware frames or device context is required for hardware accelerated decoding.\0A\00", align 1
@.str.7 = private unnamed_addr constant [60 x i8] c"Device type %s expected for hardware decoding, but got %s.\0A\00", align 1

; Function Attrs: nounwind uwtable
define i32 @ff_decode_get_hw_frames_ctx(ptr noundef %0, i32 noundef %1) #0 {
  %3 = alloca i32, align 4
  %4 = alloca ptr, align 8
  %5 = alloca i32, align 4
  %6 = alloca ptr, align 8
  %7 = alloca ptr, align 8
  %8 = alloca i32, align 4
  %9 = alloca i32, align 4
  store ptr %0, ptr %4, align 8, !tbaa !4
  store i32 %1, ptr %5, align 4, !tbaa !41
  call void @llvm.lifetime.start.p0(i64 8, ptr %6) #11
  call void @llvm.lifetime.start.p0(i64 8, ptr %7) #11
  call void @llvm.lifetime.start.p0(i64 4, ptr %8) #11
  %10 = load ptr, ptr %4, align 8, !tbaa !4
  %11 = getelementptr inbounds nuw %struct.AVCodecContext, ptr %10, i32 0, i32 105
  %12 = load ptr, ptr %11, align 8, !tbaa !174
  %13 = icmp ne ptr %12, null
  br i1 %13, label %15, label %14

14:                                               ; preds = %2
  store i32 -38, ptr %3, align 4
  store i32 1, ptr %9, align 4
  br label %91

15:                                               ; preds = %2
  %16 = load ptr, ptr %4, align 8, !tbaa !4
  %17 = getelementptr inbounds nuw %struct.AVCodecContext, ptr %16, i32 0, i32 107
  %18 = load ptr, ptr %17, align 8, !tbaa !175
  %19 = icmp ne ptr %18, null
  br i1 %19, label %20, label %21

20:                                               ; preds = %15
  store i32 0, ptr %3, align 4
  store i32 1, ptr %9, align 4
  br label %91

21:                                               ; preds = %15
  %22 = load ptr, ptr %4, align 8, !tbaa !4
  %23 = getelementptr inbounds nuw %struct.AVCodecContext, ptr %22, i32 0, i32 108
  %24 = load ptr, ptr %23, align 8, !tbaa !147
  %25 = icmp ne ptr %24, null
  br i1 %25, label %28, label %26

26:                                               ; preds = %21
  %27 = load ptr, ptr %4, align 8, !tbaa !4
  call void (ptr, i32, ptr, ...) @av_log(ptr noundef %27, i32 noundef 16, ptr noundef @.str.6)
  store i32 -22, ptr %3, align 4
  store i32 1, ptr %9, align 4
  br label %91

28:                                               ; preds = %21
  %29 = load ptr, ptr %4, align 8, !tbaa !4
  %30 = getelementptr inbounds nuw %struct.AVCodecContext, ptr %29, i32 0, i32 108
  %31 = load ptr, ptr %30, align 8, !tbaa !147
  %32 = getelementptr inbounds nuw %struct.AVBufferRef, ptr %31, i32 0, i32 1
  %33 = load ptr, ptr %32, align 8, !tbaa !152
  store ptr %33, ptr %6, align 8, !tbaa !155
  %34 = load ptr, ptr %6, align 8, !tbaa !155
  %35 = getelementptr inbounds nuw %struct.AVHWDeviceContext, ptr %34, i32 0, i32 1
  %36 = load i32, ptr %35, align 8, !tbaa !163
  %37 = load i32, ptr %5, align 4, !tbaa !41
  %38 = icmp ne i32 %36, %37
  br i1 %38, label %39, label %47

39:                                               ; preds = %28
  %40 = load ptr, ptr %4, align 8, !tbaa !4
  %41 = load i32, ptr %5, align 4, !tbaa !41
  %42 = call ptr @av_hwdevice_get_type_name(i32 noundef %41)
  %43 = load ptr, ptr %6, align 8, !tbaa !155
  %44 = getelementptr inbounds nuw %struct.AVHWDeviceContext, ptr %43, i32 0, i32 1
  %45 = load i32, ptr %44, align 8, !tbaa !163
  %46 = call ptr @av_hwdevice_get_type_name(i32 noundef %45)
  call void (ptr, i32, ptr, ...) @av_log(ptr noundef %40, i32 noundef 16, ptr noundef @.str.7, ptr noundef %42, ptr noundef %46)
  store i32 -22, ptr %3, align 4
  store i32 1, ptr %9, align 4
  br label %91

47:                                               ; preds = %28
  %48 = load ptr, ptr %4, align 8, !tbaa !4
  %49 = load ptr, ptr %4, align 8, !tbaa !4
  %50 = getelementptr inbounds nuw %struct.AVCodecContext, ptr %49, i32 0, i32 108
  %51 = load ptr, ptr %50, align 8, !tbaa !147
  %52 = load ptr, ptr %4, align 8, !tbaa !4
  %53 = getelementptr inbounds nuw %struct.AVCodecContext, ptr %52, i32 0, i32 105
  %54 = load ptr, ptr %53, align 8, !tbaa !174
  %55 = getelementptr inbounds nuw %struct.AVHWAccel, ptr %54, i32 0, i32 3
  %56 = load i32, ptr %55, align 8, !tbaa !176
  %57 = load ptr, ptr %4, align 8, !tbaa !4
  %58 = getelementptr inbounds nuw %struct.AVCodecContext, ptr %57, i32 0, i32 107
  %59 = call i32 @avcodec_get_hw_frames_parameters(ptr noundef %48, ptr noundef %51, i32 noundef %56, ptr noundef %58)
  store i32 %59, ptr %8, align 4, !tbaa !41
  %60 = load i32, ptr %8, align 4, !tbaa !41
  %61 = icmp slt i32 %60, 0
  br i1 %61, label %62, label %64

62:                                               ; preds = %47
  %63 = load i32, ptr %8, align 4, !tbaa !41
  store i32 %63, ptr %3, align 4
  store i32 1, ptr %9, align 4
  br label %91

64:                                               ; preds = %47
  %65 = load ptr, ptr %4, align 8, !tbaa !4
  %66 = getelementptr inbounds nuw %struct.AVCodecContext, ptr %65, i32 0, i32 107
  %67 = load ptr, ptr %66, align 8, !tbaa !175
  %68 = getelementptr inbounds nuw %struct.AVBufferRef, ptr %67, i32 0, i32 1
  %69 = load ptr, ptr %68, align 8, !tbaa !152
  store ptr %69, ptr %7, align 8, !tbaa !178
  %70 = load ptr, ptr %7, align 8, !tbaa !178
  %71 = getelementptr inbounds nuw %struct.AVHWFramesContext, ptr %70, i32 0, i32 7
  %72 = load i32, ptr %71, align 8, !tbaa !180
  %73 = icmp ne i32 %72, 0
  br i1 %73, label %74, label %79

74:                                               ; preds = %64
  %75 = load ptr, ptr %7, align 8, !tbaa !178
  %76 = getelementptr inbounds nuw %struct.AVHWFramesContext, ptr %75, i32 0, i32 7
  %77 = load i32, ptr %76, align 8, !tbaa !180
  %78 = add nsw i32 %77, 3
  store i32 %78, ptr %76, align 8, !tbaa !180
  br label %79

79:                                               ; preds = %74, %64
  %80 = load ptr, ptr %4, align 8, !tbaa !4
  %81 = getelementptr inbounds nuw %struct.AVCodecContext, ptr %80, i32 0, i32 107
  %82 = load ptr, ptr %81, align 8, !tbaa !175
  %83 = call i32 @av_hwframe_ctx_init(ptr noundef %82)
  store i32 %83, ptr %8, align 4, !tbaa !41
  %84 = load i32, ptr %8, align 4, !tbaa !41
  %85 = icmp slt i32 %84, 0
  br i1 %85, label %86, label %90

86:                                               ; preds = %79
  %87 = load ptr, ptr %4, align 8, !tbaa !4
  %88 = getelementptr inbounds nuw %struct.AVCodecContext, ptr %87, i32 0, i32 107
  call void @av_buffer_unref(ptr noundef %88)
  %89 = load i32, ptr %8, align 4, !tbaa !41
  store i32 %89, ptr %3, align 4
  store i32 1, ptr %9, align 4
  br label %91

90:                                               ; preds = %79
  store i32 0, ptr %3, align 4
  store i32 1, ptr %9, align 4
  br label %91

91:                                               ; preds = %90, %86, %62, %39, %26, %20, %14
  call void @llvm.lifetime.end.p0(i64 4, ptr %8) #11
  call void @llvm.lifetime.end.p0(i64 8, ptr %7) #11
  call void @llvm.lifetime.end.p0(i64 8, ptr %6) #11
  %92 = load i32, ptr %3, align 4
  ret i32 %92
}