; Function Attrs: nounwind uwtable
define range(i32 -2147483648, 1) i32 @ff_decode_get_hw_frames_ctx(ptr noundef %0, i32 noundef %1) local_unnamed_addr #0 {
  %3 = getelementptr inbounds nuw i8, ptr %0, i64 536
  %4 = load ptr, ptr %3, align 8, !tbaa !154
  %.not = icmp eq ptr %4, null
  br i1 %.not, label %38, label %5

5:                                                ; preds = %2
  %6 = getelementptr inbounds nuw i8, ptr %0, i64 552
  %7 = load ptr, ptr %6, align 8, !tbaa !155
  %.not29 = icmp eq ptr %7, null
  br i1 %.not29, label %8, label %38

8:                                                ; preds = %5
  %9 = getelementptr inbounds nuw i8, ptr %0, i64 560
  %10 = load ptr, ptr %9, align 8, !tbaa !133
  %.not30 = icmp eq ptr %10, null
  br i1 %.not30, label %11, label %12

11:                                               ; preds = %8
  tail call void (ptr, i32, ptr, ...) @av_log(ptr noundef nonnull %0, i32 noundef 16, ptr noundef nonnull @.str.6) #10
  br label %38

12:                                               ; preds = %8
  %13 = getelementptr inbounds nuw i8, ptr %10, i64 8
  %14 = load ptr, ptr %13, align 8, !tbaa !140
  %15 = getelementptr inbounds nuw i8, ptr %14, i64 8
  %16 = load i32, ptr %15, align 8, !tbaa !145
  %.not31 = icmp eq i32 %16, %1
  br i1 %.not31, label %21, label %17

17:                                               ; preds = %12
  %18 = tail call ptr @av_hwdevice_get_type_name(i32 noundef %1) #10
  %19 = load i32, ptr %15, align 8, !tbaa !145
  %20 = tail call ptr @av_hwdevice_get_type_name(i32 noundef %19) #10
  tail call void (ptr, i32, ptr, ...) @av_log(ptr noundef nonnull %0, i32 noundef 16, ptr noundef nonnull @.str.7, ptr noundef %18, ptr noundef %20) #10
  br label %38

21:                                               ; preds = %12
  %22 = getelementptr inbounds nuw i8, ptr %4, i64 16
  %23 = load i32, ptr %22, align 8, !tbaa !156
  %24 = tail call i32 @avcodec_get_hw_frames_parameters(ptr noundef nonnull %0, ptr noundef nonnull %10, i32 noundef %23, ptr noundef nonnull %6)
  %25 = icmp slt i32 %24, 0
  br i1 %25, label %38, label %26

26:                                               ; preds = %21
  %27 = load ptr, ptr %6, align 8, !tbaa !155
  %28 = getelementptr inbounds nuw i8, ptr %27, i64 8
  %29 = load ptr, ptr %28, align 8, !tbaa !140
  %30 = getelementptr inbounds nuw i8, ptr %29, i64 56
  %31 = load i32, ptr %30, align 8, !tbaa !158
  %.not32 = icmp eq i32 %31, 0
  br i1 %.not32, label %34, label %32

32:                                               ; preds = %26
  %33 = add nsw i32 %31, 3
  store i32 %33, ptr %30, align 8, !tbaa !158
  br label %34

34:                                               ; preds = %32, %26
  %35 = tail call i32 @av_hwframe_ctx_init(ptr noundef nonnull %27) #10
  %36 = icmp slt i32 %35, 0
  br i1 %36, label %37, label %38

37:                                               ; preds = %34
  tail call void @av_buffer_unref(ptr noundef nonnull %6) #10
  br label %38

38:                                               ; preds = %34, %21, %5, %2, %37, %17, %11
  %.0 = phi i32 [ -22, %17 ], [ %35, %37 ], [ -22, %11 ], [ -38, %2 ], [ 0, %5 ], [ %24, %21 ], [ 0, %34 ]
  ret i32 %.0
}